---
triple:          'x86_64-apple-darwin'
binary-path:     stack_queue1
relocations:
  - { offsetInCU: 0x41A2, offset: 0x41A2, size: 0x8, addend: 0x0, symName: __ZNSt3__124__put_character_sequenceB7v160006IcNS_11char_traitsIcEEEERNS_13basic_ostreamIT_T0_EES7_PKS4_m, symObjAddr: 0x3ED0, symBinAddr: 0x100007080, symSize: 0x1F0 }
  - { offsetInCU: 0x6D4B, offset: 0x6D4B, size: 0x8, addend: 0x0, symName: __ZNSt3__1lsB7v160006INS_11char_traitsIcEEEERNS_13basic_ostreamIcT_EES6_PKc, symObjAddr: 0x370, symBinAddr: 0x100003520, symSize: 0x40 }
  - { offsetInCU: 0x6D91, offset: 0x6D91, size: 0x8, addend: 0x0, symName: __ZNSt3__14endlB7v160006IcNS_11char_traitsIcEEEERNS_13basic_ostreamIT_T0_EES7_, symObjAddr: 0x460, symBinAddr: 0x100003610, symSize: 0x50 }
  - { offsetInCU: 0x6DD1, offset: 0x6DD1, size: 0x8, addend: 0x0, symName: __ZNSt3__13maxB7v160006ImEERKT_S3_S3_, symObjAddr: 0x1890, symBinAddr: 0x100004A40, symSize: 0x30 }
  - { offsetInCU: 0x726D, offset: 0x726D, size: 0x8, addend: 0x0, symName: __ZNSt3__14swapB7v160006IPPiEENS_9enable_ifIXaasr21is_move_constructibleIT_EE5valuesr18is_move_assignableIS4_EE5valueEvE4typeERS4_S7_, symObjAddr: 0x1F20, symBinAddr: 0x1000050D0, symSize: 0x40 }
  - { offsetInCU: 0x72BE, offset: 0x72BE, size: 0x8, addend: 0x0, symName: __ZNSt3__14moveB7v160006IPPiS2_EET0_T_S4_S3_, symObjAddr: 0x2030, symBinAddr: 0x1000051E0, symSize: 0x40 }
  - { offsetInCU: 0x7334, offset: 0x7334, size: 0x8, addend: 0x0, symName: __ZNSt3__112__to_addressB7v160006IPiEEPT_S3_, symObjAddr: 0x21D0, symBinAddr: 0x100005380, symSize: 0x10 }
  - { offsetInCU: 0x7369, offset: 0x7369, size: 0x8, addend: 0x0, symName: __ZNSt3__16__moveB7v160006INS_17_ClassicAlgPolicyEPPiS3_S3_EENS_4pairIT0_T2_EES5_T1_S6_, symObjAddr: 0x21E0, symBinAddr: 0x100005390, symSize: 0x40 }
  - { offsetInCU: 0x73D5, offset: 0x73D5, size: 0x8, addend: 0x0, symName: __ZNSt3__123__dispatch_copy_or_moveB7v160006INS_17_ClassicAlgPolicyENS_11__move_loopIS1_EENS_14__move_trivialEPPiS6_S6_EENS_4pairIT2_T4_EES8_T3_S9_, symObjAddr: 0x2220, symBinAddr: 0x1000053D0, symSize: 0x40 }
  - { offsetInCU: 0x7453, offset: 0x7453, size: 0x8, addend: 0x0, symName: __ZNSt3__121__unwrap_and_dispatchB7v160006INS_10__overloadINS_11__move_loopINS_17_ClassicAlgPolicyEEENS_14__move_trivialEEEPPiS8_S8_Li0EEENS_4pairIT0_T2_EESA_T1_SB_, symObjAddr: 0x2260, symBinAddr: 0x100005410, symSize: 0xB0 }
  - { offsetInCU: 0x74E2, offset: 0x74E2, size: 0x8, addend: 0x0, symName: __ZNSt3__114__unwrap_rangeB7v160006IPPiS2_EENS_4pairIT0_S4_EET_S6_, symObjAddr: 0x2310, symBinAddr: 0x1000054C0, symSize: 0x50 }
  - { offsetInCU: 0x76A6, offset: 0x76A6, size: 0x8, addend: 0x0, symName: __ZNSt3__113__unwrap_iterB7v160006IPPiNS_18__unwrap_iter_implIS2_Lb1EEELi0EEEDTclsrT0_8__unwrapclsr3stdE7declvalIT_EEEES6_, symObjAddr: 0x23A0, symBinAddr: 0x100005550, symSize: 0x20 }
  - { offsetInCU: 0x76EA, offset: 0x76EA, size: 0x8, addend: 0x0, symName: __ZNSt3__19make_pairB7v160006IPPiS2_EENS_4pairINS_18__unwrap_ref_decayIT_E4typeENS4_IT0_E4typeEEEOS5_OS8_, symObjAddr: 0x23C0, symBinAddr: 0x100005570, symSize: 0x30 }
  - { offsetInCU: 0x7739, offset: 0x7739, size: 0x8, addend: 0x0, symName: __ZNSt3__114__rewrap_rangeB7v160006IPPiS2_EET_S3_T0_, symObjAddr: 0x23F0, symBinAddr: 0x1000055A0, symSize: 0x30 }
  - { offsetInCU: 0x7785, offset: 0x7785, size: 0x8, addend: 0x0, symName: __ZNSt3__113__rewrap_iterB7v160006IPPiS2_NS_18__unwrap_iter_implIS2_Lb1EEEEET_S5_T0_, symObjAddr: 0x2420, symBinAddr: 0x1000055D0, symSize: 0x40 }
  - { offsetInCU: 0x77DA, offset: 0x77DA, size: 0x8, addend: 0x0, symName: __ZNSt3__119__copy_trivial_implB7v160006IPiS1_EENS_4pairIPT_PT0_EES4_S4_S6_, symObjAddr: 0x2460, symBinAddr: 0x100005610, symSize: 0x70 }
  - { offsetInCU: 0x7842, offset: 0x7842, size: 0x8, addend: 0x0, symName: __ZNSt3__19make_pairB7v160006IRPPiS2_EENS_4pairINS_18__unwrap_ref_decayIT_E4typeENS5_IT0_E4typeEEEOS6_OS9_, symObjAddr: 0x24D0, symBinAddr: 0x100005680, symSize: 0x30 }
  - { offsetInCU: 0x78E4, offset: 0x78E4, size: 0x8, addend: 0x0, symName: __ZNSt3__18distanceB7v160006INS_13move_iteratorIPPiEEEENS_15iterator_traitsIT_E15difference_typeES6_S6_, symObjAddr: 0x2630, symBinAddr: 0x1000057E0, symSize: 0x40 }
  - { offsetInCU: 0x7927, offset: 0x7927, size: 0x8, addend: 0x0, symName: __ZNSt3__110__distanceB7v160006INS_13move_iteratorIPPiEEEENS_15iterator_traitsIT_E15difference_typeES6_S6_NS_26random_access_iterator_tagE, symObjAddr: 0x2750, symBinAddr: 0x100005900, symSize: 0x30 }
  - { offsetInCU: 0x7974, offset: 0x7974, size: 0x8, addend: 0x0, symName: __ZNSt3__1miB7v160006IPPiS2_EEDTmicldtfp_4baseEcldtfp0_4baseEERKNS_13move_iteratorIT_EERKNS4_IT0_EE, symObjAddr: 0x2780, symBinAddr: 0x100005930, symSize: 0x40 }
  - { offsetInCU: 0x79C3, offset: 0x79C3, size: 0x8, addend: 0x0, symName: __ZNSt3__117__libcpp_allocateB7v160006Emm, symObjAddr: 0x29E0, symBinAddr: 0x100005B90, symSize: 0x20 }
  - { offsetInCU: 0x7A00, offset: 0x7A00, size: 0x8, addend: 0x0, symName: __ZNSt3__121__libcpp_operator_newB7v160006IJmEEEPvDpT_, symObjAddr: 0x2A20, symBinAddr: 0x100005BD0, symSize: 0x20 }
  - { offsetInCU: 0x7A39, offset: 0x7A39, size: 0x8, addend: 0x0, symName: __ZNSt3__113move_backwardB7v160006IPPiS2_EET0_T_S4_S3_, symObjAddr: 0x2A40, symBinAddr: 0x100005BF0, symSize: 0x40 }
  - { offsetInCU: 0x7A93, offset: 0x7A93, size: 0x8, addend: 0x0, symName: __ZNSt3__115__move_backwardB7v160006INS_17_ClassicAlgPolicyEPPiS3_S3_EENS_4pairIT0_T2_EES5_T1_S6_, symObjAddr: 0x2A80, symBinAddr: 0x100005C30, symSize: 0x40 }
  - { offsetInCU: 0x7AFF, offset: 0x7AFF, size: 0x8, addend: 0x0, symName: __ZNSt3__123__dispatch_copy_or_moveB7v160006INS_17_ClassicAlgPolicyENS_20__move_backward_loopIS1_EENS_23__move_backward_trivialEPPiS6_S6_EENS_4pairIT2_T4_EES8_T3_S9_, symObjAddr: 0x2AC0, symBinAddr: 0x100005C70, symSize: 0x40 }
  - { offsetInCU: 0x7B7D, offset: 0x7B7D, size: 0x8, addend: 0x0, symName: __ZNSt3__121__unwrap_and_dispatchB7v160006INS_10__overloadINS_20__move_backward_loopINS_17_ClassicAlgPolicyEEENS_23__move_backward_trivialEEEPPiS8_S8_Li0EEENS_4pairIT0_T2_EESA_T1_SB_, symObjAddr: 0x2B00, symBinAddr: 0x100005CB0, symSize: 0xB0 }
  - { offsetInCU: 0x7C52, offset: 0x7C52, size: 0x8, addend: 0x0, symName: __ZNSt3__128__copy_backward_trivial_implB7v160006IPiS1_EENS_4pairIPT_PT0_EES4_S4_S6_, symObjAddr: 0x2BF0, symBinAddr: 0x100005DA0, symSize: 0x80 }
  - { offsetInCU: 0x7CBA, offset: 0x7CBA, size: 0x8, addend: 0x0, symName: __ZNSt3__19make_pairB7v160006IRPPiS3_EENS_4pairINS_18__unwrap_ref_decayIT_E4typeENS5_IT0_E4typeEEEOS6_OS9_, symObjAddr: 0x2C70, symBinAddr: 0x100005E20, symSize: 0x30 }
  - { offsetInCU: 0x7D09, offset: 0x7D09, size: 0x8, addend: 0x0, symName: __ZNSt3__13maxB7v160006ImNS_6__lessImmEEEERKT_S5_S5_T0_, symObjAddr: 0x2D00, symBinAddr: 0x100005EB0, symSize: 0x50 }
  - { offsetInCU: 0x7D9E, offset: 0x7D9E, size: 0x8, addend: 0x0, symName: __ZNSt3__119__allocate_at_leastB7v160006INS_9allocatorIPiEEEENS_19__allocation_resultINS_16allocator_traitsIT_E7pointerEEERS6_m, symObjAddr: 0x2EB0, symBinAddr: 0x100006060, symSize: 0x40 }
  - { offsetInCU: 0x7DE1, offset: 0x7DE1, size: 0x8, addend: 0x0, symName: __ZNSt3__119__libcpp_deallocateB7v160006EPvmm, symObjAddr: 0x3320, symBinAddr: 0x1000064D0, symSize: 0x30 }
  - { offsetInCU: 0x7E29, offset: 0x7E29, size: 0x8, addend: 0x0, symName: __ZNSt3__127__do_deallocate_handle_sizeB7v160006IJEEEvPvmDpT_, symObjAddr: 0x3350, symBinAddr: 0x100006500, symSize: 0x20 }
  - { offsetInCU: 0x7E67, offset: 0x7E67, size: 0x8, addend: 0x0, symName: __ZNSt3__124__libcpp_operator_deleteB7v160006IJPvEEEvDpT_, symObjAddr: 0x3370, symBinAddr: 0x100006520, symSize: 0x20 }
  - { offsetInCU: 0x7E9C, offset: 0x7E9C, size: 0x8, addend: 0x0, symName: __ZNSt3__112__to_addressB7v160006IiEEPT_S2_, symObjAddr: 0x3880, symBinAddr: 0x100006A30, symSize: 0x10 }
  - { offsetInCU: 0x7ED1, offset: 0x7ED1, size: 0x8, addend: 0x0, symName: __ZNSt3__1neB7v160006ERKNS_16__deque_iteratorIiPiRiPS1_lLl1024EEES6_, symObjAddr: 0x3D90, symBinAddr: 0x100006F40, symSize: 0x30 }
  - { offsetInCU: 0x7F0E, offset: 0x7F0E, size: 0x8, addend: 0x0, symName: __ZNSt3__1eqB7v160006ERKNS_16__deque_iteratorIiPiRiPS1_lLl1024EEES6_, symObjAddr: 0x3E20, symBinAddr: 0x100006FD0, symSize: 0x30 }
  - { offsetInCU: 0x7F4B, offset: 0x7F4B, size: 0x8, addend: 0x0, symName: __ZNSt3__116__pad_and_outputB7v160006IcNS_11char_traitsIcEEEENS_19ostreambuf_iteratorIT_T0_EES6_PKS4_S8_S8_RNS_8ios_baseES4_, symObjAddr: 0x4110, symBinAddr: 0x1000072C0, symSize: 0x220 }
  - { offsetInCU: 0x801B, offset: 0x801B, size: 0x8, addend: 0x0, symName: __ZNSt3__119__debug_db_insert_cB7v160006INS_12basic_stringIcNS_11char_traitsIcEENS_9allocatorIcEEEEEEvPT_, symObjAddr: 0x45A0, symBinAddr: 0x100007750, symSize: 0x10 }
  - { offsetInCU: 0x804C, offset: 0x804C, size: 0x8, addend: 0x0, symName: __ZNSt3__112__to_addressB7v160006IKcEEPT_S3_, symObjAddr: 0x4640, symBinAddr: 0x1000077F0, symSize: 0x10 }
  - { offsetInCU: 0x80B4, offset: 0x80B4, size: 0x8, addend: 0x0, symName: __ZNSt3__19use_facetB7v160006INS_5ctypeIcEEEERKT_RKNS_6localeE, symObjAddr: 0x48A0, symBinAddr: 0x100007A50, symSize: 0x30 }
  - { offsetInCU: 0x8583, offset: 0x8583, size: 0x8, addend: 0x0, symName: __ZNSt3__118__constexpr_strlenB7v160006EPKc, symObjAddr: 0x4930, symBinAddr: 0x100007AE0, symSize: 0x1B }
  - { offsetInCU: 0x875B, offset: 0x875B, size: 0x8, addend: 0x0, symName: __ZSt28__throw_bad_array_new_lengthB7v160006v, symObjAddr: 0x29A0, symBinAddr: 0x100005B50, symSize: 0x40 }
  - { offsetInCU: 0xAEA4, offset: 0xAEA4, size: 0x8, addend: 0x0, symName: _main, symObjAddr: 0x0, symBinAddr: 0x1000031B0, symSize: 0x320 }
  - { offsetInCU: 0xAFA6, offset: 0xAFA6, size: 0x8, addend: 0x0, symName: __ZN7MyQueueC1Ev, symObjAddr: 0x320, symBinAddr: 0x1000034D0, symSize: 0x20 }
  - { offsetInCU: 0xAFD0, offset: 0xAFD0, size: 0x8, addend: 0x0, symName: __ZN7MyQueue4pushEi, symObjAddr: 0x340, symBinAddr: 0x1000034F0, symSize: 0x30 }
  - { offsetInCU: 0xB004, offset: 0xB004, size: 0x8, addend: 0x0, symName: __ZN7MyQueue4peekEv, symObjAddr: 0x3B0, symBinAddr: 0x100003560, symSize: 0x90 }
  - { offsetInCU: 0xB02A, offset: 0xB02A, size: 0x8, addend: 0x0, symName: __ZNSt3__113basic_ostreamIcNS_11char_traitsIcEEElsB7v160006EPFRS3_S4_E, symObjAddr: 0x440, symBinAddr: 0x1000035F0, symSize: 0x20 }
  - { offsetInCU: 0xB05E, offset: 0xB05E, size: 0x8, addend: 0x0, symName: __ZN7MyQueue3popEv, symObjAddr: 0x4B0, symBinAddr: 0x100003660, symSize: 0xB0 }
  - { offsetInCU: 0xB092, offset: 0xB092, size: 0x8, addend: 0x0, symName: __ZN7MyQueue5emptyEv, symObjAddr: 0x560, symBinAddr: 0x100003710, symSize: 0x50 }
  - { offsetInCU: 0xB0B8, offset: 0xB0B8, size: 0x8, addend: 0x0, symName: __ZN7MyQueueD1Ev, symObjAddr: 0x5B0, symBinAddr: 0x100003760, symSize: 0x20 }
  - { offsetInCU: 0xB0E4, offset: 0xB0E4, size: 0x8, addend: 0x0, symName: __ZN7MyQueueC2Ev, symObjAddr: 0x5D0, symBinAddr: 0x100003780, symSize: 0x30 }
  - { offsetInCU: 0xB10E, offset: 0xB10E, size: 0x8, addend: 0x0, symName: __ZNSt3__15stackIiNS_5dequeIiNS_9allocatorIiEEEEEC1B7v160006Ev, symObjAddr: 0x600, symBinAddr: 0x1000037B0, symSize: 0x20 }
  - { offsetInCU: 0xB138, offset: 0xB138, size: 0x8, addend: 0x0, symName: __ZNSt3__15stackIiNS_5dequeIiNS_9allocatorIiEEEEEC2B7v160006Ev, symObjAddr: 0x620, symBinAddr: 0x1000037D0, symSize: 0x20 }
  - { offsetInCU: 0xB162, offset: 0xB162, size: 0x8, addend: 0x0, symName: __ZNSt3__15dequeIiNS_9allocatorIiEEEC1B7v160006Ev, symObjAddr: 0x640, symBinAddr: 0x1000037F0, symSize: 0x20 }
  - { offsetInCU: 0xB18C, offset: 0xB18C, size: 0x8, addend: 0x0, symName: __ZNSt3__15dequeIiNS_9allocatorIiEEEC2B7v160006Ev, symObjAddr: 0x660, symBinAddr: 0x100003810, symSize: 0x50 }
  - { offsetInCU: 0xB1B6, offset: 0xB1B6, size: 0x8, addend: 0x0, symName: __ZNSt3__114__split_bufferIPiNS_9allocatorIS1_EEEC1Ev, symObjAddr: 0x6B0, symBinAddr: 0x100003860, symSize: 0x20 }
  - { offsetInCU: 0xB1EC, offset: 0xB1EC, size: 0x8, addend: 0x0, symName: __ZNSt3__117__compressed_pairImNS_9allocatorIiEEEC1B7v160006IiNS_18__default_init_tagEEEOT_OT0_, symObjAddr: 0x6D0, symBinAddr: 0x100003880, symSize: 0x30 }
  - { offsetInCU: 0xB244, offset: 0xB244, size: 0x8, addend: 0x0, symName: __ZNSt3__114__split_bufferIPiNS_9allocatorIS1_EEEC2Ev, symObjAddr: 0x710, symBinAddr: 0x1000038C0, symSize: 0x60 }
  - { offsetInCU: 0xB275, offset: 0xB275, size: 0x8, addend: 0x0, symName: __ZNSt3__117__compressed_pairIPPiNS_9allocatorIS1_EEEC1B7v160006IDnNS_18__default_init_tagEEEOT_OT0_, symObjAddr: 0x770, symBinAddr: 0x100003920, symSize: 0x30 }
  - { offsetInCU: 0xB2CD, offset: 0xB2CD, size: 0x8, addend: 0x0, symName: __ZNSt3__117__compressed_pairIPPiNS_9allocatorIS1_EEEC2B7v160006IDnNS_18__default_init_tagEEEOT_OT0_, symObjAddr: 0x7A0, symBinAddr: 0x100003950, symSize: 0x40 }
  - { offsetInCU: 0xB325, offset: 0xB325, size: 0x8, addend: 0x0, symName: __ZNSt3__122__compressed_pair_elemIPPiLi0ELb0EEC2B7v160006IDnvEEOT_, symObjAddr: 0x7E0, symBinAddr: 0x100003990, symSize: 0x20 }
  - { offsetInCU: 0xB367, offset: 0xB367, size: 0x8, addend: 0x0, symName: __ZNSt3__122__compressed_pair_elemINS_9allocatorIPiEELi1ELb1EEC2B7v160006ENS_18__default_init_tagE, symObjAddr: 0x800, symBinAddr: 0x1000039B0, symSize: 0x20 }
  - { offsetInCU: 0xB39B, offset: 0xB39B, size: 0x8, addend: 0x0, symName: __ZNSt3__19allocatorIPiEC2B7v160006Ev, symObjAddr: 0x820, symBinAddr: 0x1000039D0, symSize: 0x20 }
  - { offsetInCU: 0xB3C5, offset: 0xB3C5, size: 0x8, addend: 0x0, symName: __ZNSt3__116__non_trivial_ifILb1ENS_9allocatorIPiEEEC2B7v160006Ev, symObjAddr: 0x840, symBinAddr: 0x1000039F0, symSize: 0x10 }
  - { offsetInCU: 0xB3EF, offset: 0xB3EF, size: 0x8, addend: 0x0, symName: __ZNSt3__117__compressed_pairImNS_9allocatorIiEEEC2B7v160006IiNS_18__default_init_tagEEEOT_OT0_, symObjAddr: 0x850, symBinAddr: 0x100003A00, symSize: 0x40 }
  - { offsetInCU: 0xB447, offset: 0xB447, size: 0x8, addend: 0x0, symName: __ZNSt3__122__compressed_pair_elemImLi0ELb0EEC2B7v160006IivEEOT_, symObjAddr: 0x890, symBinAddr: 0x100003A40, symSize: 0x20 }
  - { offsetInCU: 0xB489, offset: 0xB489, size: 0x8, addend: 0x0, symName: __ZNSt3__122__compressed_pair_elemINS_9allocatorIiEELi1ELb1EEC2B7v160006ENS_18__default_init_tagE, symObjAddr: 0x8B0, symBinAddr: 0x100003A60, symSize: 0x20 }
  - { offsetInCU: 0xB4BD, offset: 0xB4BD, size: 0x8, addend: 0x0, symName: __ZNSt3__19allocatorIiEC2B7v160006Ev, symObjAddr: 0x8D0, symBinAddr: 0x100003A80, symSize: 0x20 }
  - { offsetInCU: 0xB4E7, offset: 0xB4E7, size: 0x8, addend: 0x0, symName: __ZNSt3__116__non_trivial_ifILb1ENS_9allocatorIiEEEC2B7v160006Ev, symObjAddr: 0x8F0, symBinAddr: 0x100003AA0, symSize: 0x10 }
  - { offsetInCU: 0xB511, offset: 0xB511, size: 0x8, addend: 0x0, symName: __ZNSt3__15stackIiNS_5dequeIiNS_9allocatorIiEEEEE4pushB7v160006ERKi, symObjAddr: 0x900, symBinAddr: 0x100003AB0, symSize: 0x30 }
  - { offsetInCU: 0xB545, offset: 0xB545, size: 0x8, addend: 0x0, symName: __ZNSt3__15dequeIiNS_9allocatorIiEEE9push_backERKi, symObjAddr: 0x930, symBinAddr: 0x100003AE0, symSize: 0x90 }
  - { offsetInCU: 0xB58B, offset: 0xB58B, size: 0x8, addend: 0x0, symName: __ZNSt3__15dequeIiNS_9allocatorIiEEE7__allocB7v160006Ev, symObjAddr: 0x9C0, symBinAddr: 0x100003B70, symSize: 0x20 }
  - { offsetInCU: 0xB5B1, offset: 0xB5B1, size: 0x8, addend: 0x0, symName: __ZNKSt3__15dequeIiNS_9allocatorIiEEE12__back_spareB7v160006Ev, symObjAddr: 0x9E0, symBinAddr: 0x100003B90, symSize: 0x50 }
  - { offsetInCU: 0xB5D7, offset: 0xB5D7, size: 0x8, addend: 0x0, symName: __ZNSt3__15dequeIiNS_9allocatorIiEEE19__add_back_capacityEv, symObjAddr: 0xA30, symBinAddr: 0x100003BE0, symSize: 0x380 }
  - { offsetInCU: 0xB68F, offset: 0xB68F, size: 0x8, addend: 0x0, symName: __ZNSt3__116allocator_traitsINS_9allocatorIiEEE9constructB7v160006IiJRKiEvEEvRS2_PT_DpOT0_, symObjAddr: 0xDB0, symBinAddr: 0x100003F60, symSize: 0x30 }
  - { offsetInCU: 0xB6E6, offset: 0xB6E6, size: 0x8, addend: 0x0, symName: __ZNSt3__15dequeIiNS_9allocatorIiEEE3endB7v160006Ev, symObjAddr: 0xDE0, symBinAddr: 0x100003F90, symSize: 0xC0 }
  - { offsetInCU: 0xB72A, offset: 0xB72A, size: 0x8, addend: 0x0, symName: __ZNKSt3__116__deque_iteratorIiPiRiPS1_lLl1024EEdeB7v160006Ev, symObjAddr: 0xEA0, symBinAddr: 0x100004050, symSize: 0x20 }
  - { offsetInCU: 0xB750, offset: 0xB750, size: 0x8, addend: 0x0, symName: __ZNSt3__15dequeIiNS_9allocatorIiEEE6__sizeB7v160006Ev, symObjAddr: 0xEC0, symBinAddr: 0x100004070, symSize: 0x20 }
  - { offsetInCU: 0xB776, offset: 0xB776, size: 0x8, addend: 0x0, symName: __ZNSt3__117__compressed_pairImNS_9allocatorIiEEE6secondB7v160006Ev, symObjAddr: 0xEE0, symBinAddr: 0x100004090, symSize: 0x20 }
  - { offsetInCU: 0xB79C, offset: 0xB79C, size: 0x8, addend: 0x0, symName: __ZNSt3__122__compressed_pair_elemINS_9allocatorIiEELi1ELb1EE5__getB7v160006Ev, symObjAddr: 0xF00, symBinAddr: 0x1000040B0, symSize: 0x10 }
  - { offsetInCU: 0xB7C2, offset: 0xB7C2, size: 0x8, addend: 0x0, symName: __ZNKSt3__15dequeIiNS_9allocatorIiEEE10__capacityB7v160006Ev, symObjAddr: 0xF10, symBinAddr: 0x1000040C0, symSize: 0x50 }
  - { offsetInCU: 0xB7E8, offset: 0xB7E8, size: 0x8, addend: 0x0, symName: __ZNKSt3__15dequeIiNS_9allocatorIiEEE4sizeB7v160006Ev, symObjAddr: 0xF60, symBinAddr: 0x100004110, symSize: 0x20 }
  - { offsetInCU: 0xB80E, offset: 0xB80E, size: 0x8, addend: 0x0, symName: __ZNKSt3__114__split_bufferIPiNS_9allocatorIS1_EEE4sizeB7v160006Ev, symObjAddr: 0xF80, symBinAddr: 0x100004130, symSize: 0x20 }
  - { offsetInCU: 0xB834, offset: 0xB834, size: 0x8, addend: 0x0, symName: __ZNKSt3__15dequeIiNS_9allocatorIiEEE6__sizeB7v160006Ev, symObjAddr: 0xFA0, symBinAddr: 0x100004150, symSize: 0x20 }
  - { offsetInCU: 0xB85A, offset: 0xB85A, size: 0x8, addend: 0x0, symName: __ZNKSt3__117__compressed_pairImNS_9allocatorIiEEE5firstB7v160006Ev, symObjAddr: 0xFC0, symBinAddr: 0x100004170, symSize: 0x20 }
  - { offsetInCU: 0xB880, offset: 0xB880, size: 0x8, addend: 0x0, symName: __ZNKSt3__122__compressed_pair_elemImLi0ELb0EE5__getB7v160006Ev, symObjAddr: 0xFE0, symBinAddr: 0x100004190, symSize: 0x10 }
  - { offsetInCU: 0xB8A6, offset: 0xB8A6, size: 0x8, addend: 0x0, symName: __ZNKSt3__15dequeIiNS_9allocatorIiEEE13__front_spareB7v160006Ev, symObjAddr: 0xFF0, symBinAddr: 0x1000041A0, symSize: 0x20 }
  - { offsetInCU: 0xB8CC, offset: 0xB8CC, size: 0x8, addend: 0x0, symName: __ZNSt3__114__split_bufferIPiNS_9allocatorIS1_EEE5frontB7v160006Ev, symObjAddr: 0x1010, symBinAddr: 0x1000041C0, symSize: 0x20 }
  - { offsetInCU: 0xB8F2, offset: 0xB8F2, size: 0x8, addend: 0x0, symName: __ZNSt3__114__split_bufferIPiNS_9allocatorIS1_EEE9pop_frontB7v160006Ev, symObjAddr: 0x1030, symBinAddr: 0x1000041E0, symSize: 0x30 }
  - { offsetInCU: 0xB918, offset: 0xB918, size: 0x8, addend: 0x0, symName: __ZNSt3__114__split_bufferIPiNS_9allocatorIS1_EEE9push_backB7v160006ERKS1_, symObjAddr: 0x1060, symBinAddr: 0x100004210, symSize: 0x290 }
  - { offsetInCU: 0xB991, offset: 0xB991, size: 0x8, addend: 0x0, symName: __ZNKSt3__114__split_bufferIPiNS_9allocatorIS1_EEE8capacityB7v160006Ev, symObjAddr: 0x12F0, symBinAddr: 0x1000044A0, symSize: 0x30 }
  - { offsetInCU: 0xB9B7, offset: 0xB9B7, size: 0x8, addend: 0x0, symName: __ZNKSt3__114__split_bufferIPiNS_9allocatorIS1_EEE12__back_spareB7v160006Ev, symObjAddr: 0x1320, symBinAddr: 0x1000044D0, symSize: 0x40 }
  - { offsetInCU: 0xB9DD, offset: 0xB9DD, size: 0x8, addend: 0x0, symName: __ZNSt3__114__split_bufferIPiNS_9allocatorIS1_EEE9push_backEOS1_, symObjAddr: 0x1360, symBinAddr: 0x100004510, symSize: 0x290 }
  - { offsetInCU: 0xBA56, offset: 0xBA56, size: 0x8, addend: 0x0, symName: __ZNSt3__116allocator_traitsINS_9allocatorIiEEE8allocateB7v160006ERS2_m, symObjAddr: 0x15F0, symBinAddr: 0x1000047A0, symSize: 0x30 }
  - { offsetInCU: 0xBA89, offset: 0xBA89, size: 0x8, addend: 0x0, symName: __ZNSt3__114__split_bufferIPiNS_9allocatorIS1_EEE10push_frontEOS1_, symObjAddr: 0x1620, symBinAddr: 0x1000047D0, symSize: 0x270 }
  - { offsetInCU: 0xBB02, offset: 0xBB02, size: 0x8, addend: 0x0, symName: __ZNSt3__114__split_bufferIPiNS_9allocatorIS1_EEE7__allocB7v160006Ev, symObjAddr: 0x18C0, symBinAddr: 0x100004A70, symSize: 0x20 }
  - { offsetInCU: 0xBB28, offset: 0xBB28, size: 0x8, addend: 0x0, symName: __ZNSt3__114__split_bufferIPiRNS_9allocatorIS1_EEEC1EmmS4_, symObjAddr: 0x18E0, symBinAddr: 0x100004A90, symSize: 0x40 }
  - { offsetInCU: 0xBB83, offset: 0xBB83, size: 0x8, addend: 0x0, symName: __ZNSt3__122__allocator_destructorINS_9allocatorIiEEEC1B7v160006ERS2_m, symObjAddr: 0x1920, symBinAddr: 0x100004AD0, symSize: 0x30 }
  - { offsetInCU: 0xBC46, offset: 0xBC46, size: 0x8, addend: 0x0, symName: __ZNSt3__110unique_ptrIPiNS_22__allocator_destructorINS_9allocatorIiEEEEEC1B7v160006ILb1EvEES1_NS_16__dependent_typeINS_27__unique_ptr_deleter_sfinaeIS5_EEXT_EE20__good_rval_ref_typeE, symObjAddr: 0x1950, symBinAddr: 0x100004B00, symSize: 0x30 }
  - { offsetInCU: 0xBC97, offset: 0xBC97, size: 0x8, addend: 0x0, symName: __ZNSt3__114__split_bufferIPiRNS_9allocatorIS1_EEE9push_backEOS1_, symObjAddr: 0x1980, symBinAddr: 0x100004B30, symSize: 0x290 }
  - { offsetInCU: 0xBD10, offset: 0xBD10, size: 0x8, addend: 0x0, symName: __ZNKSt3__110unique_ptrIPiNS_22__allocator_destructorINS_9allocatorIiEEEEE3getB7v160006Ev, symObjAddr: 0x1C10, symBinAddr: 0x100004DC0, symSize: 0x20 }
  - { offsetInCU: 0xBD36, offset: 0xBD36, size: 0x8, addend: 0x0, symName: __ZNSt3__110unique_ptrIPiNS_22__allocator_destructorINS_9allocatorIiEEEEE7releaseB7v160006Ev, symObjAddr: 0x1C30, symBinAddr: 0x100004DE0, symSize: 0x40 }
  - { offsetInCU: 0xBD6B, offset: 0xBD6B, size: 0x8, addend: 0x0, symName: __ZNSt3__114__split_bufferIPiNS_9allocatorIS1_EEE3endB7v160006Ev, symObjAddr: 0x1C70, symBinAddr: 0x100004E20, symSize: 0x20 }
  - { offsetInCU: 0xBD91, offset: 0xBD91, size: 0x8, addend: 0x0, symName: __ZNSt3__114__split_bufferIPiNS_9allocatorIS1_EEE5beginB7v160006Ev, symObjAddr: 0x1C90, symBinAddr: 0x100004E40, symSize: 0x20 }
  - { offsetInCU: 0xBDB7, offset: 0xBDB7, size: 0x8, addend: 0x0, symName: __ZNSt3__114__split_bufferIPiRNS_9allocatorIS1_EEE10push_frontERKS1_, symObjAddr: 0x1CB0, symBinAddr: 0x100004E60, symSize: 0x270 }
  - { offsetInCU: 0xBE30, offset: 0xBE30, size: 0x8, addend: 0x0, symName: __ZNSt3__114__split_bufferIPiNS_9allocatorIS1_EEE9__end_capB7v160006Ev, symObjAddr: 0x1F60, symBinAddr: 0x100005110, symSize: 0x20 }
  - { offsetInCU: 0xBE56, offset: 0xBE56, size: 0x8, addend: 0x0, symName: __ZNSt3__114__split_bufferIPiRNS_9allocatorIS1_EEE9__end_capB7v160006Ev, symObjAddr: 0x1F80, symBinAddr: 0x100005130, symSize: 0x20 }
  - { offsetInCU: 0xBE7C, offset: 0xBE7C, size: 0x8, addend: 0x0, symName: __ZNSt3__110unique_ptrIPiNS_22__allocator_destructorINS_9allocatorIiEEEEED1B7v160006Ev, symObjAddr: 0x1FA0, symBinAddr: 0x100005150, symSize: 0x20 }
  - { offsetInCU: 0xBEA6, offset: 0xBEA6, size: 0x8, addend: 0x0, symName: __ZNSt3__114__split_bufferIPiRNS_9allocatorIS1_EEED1Ev, symObjAddr: 0x1FC0, symBinAddr: 0x100005170, symSize: 0x20 }
  - { offsetInCU: 0xBED2, offset: 0xBED2, size: 0x8, addend: 0x0, symName: __ZNSt3__114__split_bufferIPiNS_9allocatorIS1_EEE19__destruct_at_beginB7v160006EPS1_, symObjAddr: 0x1FE0, symBinAddr: 0x100005190, symSize: 0x30 }
  - { offsetInCU: 0xBF06, offset: 0xBF06, size: 0x8, addend: 0x0, symName: __ZNSt3__114__split_bufferIPiNS_9allocatorIS1_EEE19__destruct_at_beginEPS1_NS_17integral_constantIbLb1EEE, symObjAddr: 0x2010, symBinAddr: 0x1000051C0, symSize: 0x20 }
  - { offsetInCU: 0xBF46, offset: 0xBF46, size: 0x8, addend: 0x0, symName: __ZNSt3__114__split_bufferIPiRNS_9allocatorIS1_EEE18__construct_at_endINS_13move_iteratorIPS1_EEEENS_9enable_ifIXsr27__is_cpp17_forward_iteratorIT_EE5valueEvE4typeESB_SB_, symObjAddr: 0x2070, symBinAddr: 0x100005220, symSize: 0x100 }
  - { offsetInCU: 0xBFA2, offset: 0xBFA2, size: 0x8, addend: 0x0, symName: __ZNSt3__113move_iteratorIPPiEC1B7v160006ES2_, symObjAddr: 0x2170, symBinAddr: 0x100005320, symSize: 0x30 }
  - { offsetInCU: 0xBFDA, offset: 0xBFDA, size: 0x8, addend: 0x0, symName: __ZNSt3__116allocator_traitsINS_9allocatorIPiEEE9constructB7v160006IS2_JRKS2_EvEEvRS3_PT_DpOT0_, symObjAddr: 0x21A0, symBinAddr: 0x100005350, symSize: 0x30 }
  - { offsetInCU: 0xC054, offset: 0xC054, size: 0x8, addend: 0x0, symName: __ZNKSt3__114__move_trivialclB7v160006IPiS2_Li0EEENS_4pairIPT_PT0_EES5_S5_S7_, symObjAddr: 0x2360, symBinAddr: 0x100005510, symSize: 0x40 }
  - { offsetInCU: 0xC0C1, offset: 0xC0C1, size: 0x8, addend: 0x0, symName: __ZNSt3__14pairIPPiS2_EC1B7v160006IRS2_S2_LPv0EEEOT_OT0_, symObjAddr: 0x2500, symBinAddr: 0x1000056B0, symSize: 0x30 }
  - { offsetInCU: 0xC11F, offset: 0xC11F, size: 0x8, addend: 0x0, symName: __ZNSt3__14pairIPPiS2_EC2B7v160006IRS2_S2_LPv0EEEOT_OT0_, symObjAddr: 0x2530, symBinAddr: 0x1000056E0, symSize: 0x30 }
  - { offsetInCU: 0xC17D, offset: 0xC17D, size: 0x8, addend: 0x0, symName: __ZNSt3__118__unwrap_iter_implIPPiLb1EE8__unwrapB7v160006ES2_, symObjAddr: 0x2560, symBinAddr: 0x100005710, symSize: 0x20 }
  - { offsetInCU: 0xC1A0, offset: 0xC1A0, size: 0x8, addend: 0x0, symName: __ZNSt3__14pairIPPiS2_EC1B7v160006IS2_S2_LPv0EEEOT_OT0_, symObjAddr: 0x2580, symBinAddr: 0x100005730, symSize: 0x30 }
  - { offsetInCU: 0xC1FE, offset: 0xC1FE, size: 0x8, addend: 0x0, symName: __ZNSt3__14pairIPPiS2_EC2B7v160006IS2_S2_LPv0EEEOT_OT0_, symObjAddr: 0x25B0, symBinAddr: 0x100005760, symSize: 0x30 }
  - { offsetInCU: 0xC25C, offset: 0xC25C, size: 0x8, addend: 0x0, symName: __ZNSt3__118__unwrap_iter_implIPPiLb1EE8__rewrapB7v160006ES2_S2_, symObjAddr: 0x25E0, symBinAddr: 0x100005790, symSize: 0x50 }
  - { offsetInCU: 0xC297, offset: 0xC297, size: 0x8, addend: 0x0, symName: __ZNSt3__114__split_bufferIPiRNS_9allocatorIS1_EEE21_ConstructTransactionC1B7v160006EPPS1_m, symObjAddr: 0x2670, symBinAddr: 0x100005820, symSize: 0x30 }
  - { offsetInCU: 0xC2DD, offset: 0xC2DD, size: 0x8, addend: 0x0, symName: __ZNSt3__116allocator_traitsINS_9allocatorIPiEEE9constructB7v160006IS2_JS2_EvEEvRS3_PT_DpOT0_, symObjAddr: 0x26A0, symBinAddr: 0x100005850, symSize: 0x30 }
  - { offsetInCU: 0xC334, offset: 0xC334, size: 0x8, addend: 0x0, symName: __ZNSt3__114__split_bufferIPiRNS_9allocatorIS1_EEE7__allocB7v160006Ev, symObjAddr: 0x26D0, symBinAddr: 0x100005880, symSize: 0x20 }
  - { offsetInCU: 0xC35A, offset: 0xC35A, size: 0x8, addend: 0x0, symName: __ZNKSt3__113move_iteratorIPPiEdeB7v160006Ev, symObjAddr: 0x26F0, symBinAddr: 0x1000058A0, symSize: 0x20 }
  - { offsetInCU: 0xC380, offset: 0xC380, size: 0x8, addend: 0x0, symName: __ZNSt3__113move_iteratorIPPiEppB7v160006Ev, symObjAddr: 0x2710, symBinAddr: 0x1000058C0, symSize: 0x20 }
  - { offsetInCU: 0xC3A6, offset: 0xC3A6, size: 0x8, addend: 0x0, symName: __ZNSt3__114__split_bufferIPiRNS_9allocatorIS1_EEE21_ConstructTransactionD1B7v160006Ev, symObjAddr: 0x2730, symBinAddr: 0x1000058E0, symSize: 0x20 }
  - { offsetInCU: 0xC3D0, offset: 0xC3D0, size: 0x8, addend: 0x0, symName: __ZNKSt3__113move_iteratorIPPiE4baseB7v160006Ev, symObjAddr: 0x27C0, symBinAddr: 0x100005970, symSize: 0x20 }
  - { offsetInCU: 0xC3F6, offset: 0xC3F6, size: 0x8, addend: 0x0, symName: __ZNSt3__114__split_bufferIPiRNS_9allocatorIS1_EEE21_ConstructTransactionC2B7v160006EPPS1_m, symObjAddr: 0x27E0, symBinAddr: 0x100005990, symSize: 0x40 }
  - { offsetInCU: 0xC43C, offset: 0xC43C, size: 0x8, addend: 0x0, symName: __ZNSt3__19allocatorIPiE9constructB7v160006IS1_JS1_EEEvPT_DpOT0_, symObjAddr: 0x2820, symBinAddr: 0x1000059D0, symSize: 0x20 }
  - { offsetInCU: 0xC492, offset: 0xC492, size: 0x8, addend: 0x0, symName: __ZNSt3__117__compressed_pairIPPiRNS_9allocatorIS1_EEE6secondB7v160006Ev, symObjAddr: 0x2840, symBinAddr: 0x1000059F0, symSize: 0x20 }
  - { offsetInCU: 0xC4B8, offset: 0xC4B8, size: 0x8, addend: 0x0, symName: __ZNSt3__122__compressed_pair_elemIRNS_9allocatorIPiEELi1ELb0EE5__getB7v160006Ev, symObjAddr: 0x2860, symBinAddr: 0x100005A10, symSize: 0x20 }
  - { offsetInCU: 0xC4DE, offset: 0xC4DE, size: 0x8, addend: 0x0, symName: __ZNSt3__114__split_bufferIPiRNS_9allocatorIS1_EEE21_ConstructTransactionD2B7v160006Ev, symObjAddr: 0x2880, symBinAddr: 0x100005A30, symSize: 0x20 }
  - { offsetInCU: 0xC508, offset: 0xC508, size: 0x8, addend: 0x0, symName: __ZNSt3__113move_iteratorIPPiEC2B7v160006ES2_, symObjAddr: 0x28A0, symBinAddr: 0x100005A50, symSize: 0x20 }
  - { offsetInCU: 0xC540, offset: 0xC540, size: 0x8, addend: 0x0, symName: __ZNSt3__19allocatorIPiE9constructB7v160006IS1_JRKS1_EEEvPT_DpOT0_, symObjAddr: 0x28C0, symBinAddr: 0x100005A70, symSize: 0x20 }
  - { offsetInCU: 0xC596, offset: 0xC596, size: 0x8, addend: 0x0, symName: __ZNKSt3__114__split_bufferIPiNS_9allocatorIS1_EEE9__end_capB7v160006Ev, symObjAddr: 0x28E0, symBinAddr: 0x100005A90, symSize: 0x20 }
  - { offsetInCU: 0xC5BC, offset: 0xC5BC, size: 0x8, addend: 0x0, symName: __ZNKSt3__117__compressed_pairIPPiNS_9allocatorIS1_EEE5firstB7v160006Ev, symObjAddr: 0x2900, symBinAddr: 0x100005AB0, symSize: 0x20 }
  - { offsetInCU: 0xC5E2, offset: 0xC5E2, size: 0x8, addend: 0x0, symName: __ZNKSt3__122__compressed_pair_elemIPPiLi0ELb0EE5__getB7v160006Ev, symObjAddr: 0x2920, symBinAddr: 0x100005AD0, symSize: 0x10 }
  - { offsetInCU: 0xC608, offset: 0xC608, size: 0x8, addend: 0x0, symName: __ZNSt3__19allocatorIiE8allocateB7v160006Em, symObjAddr: 0x2930, symBinAddr: 0x100005AE0, symSize: 0x50 }
  - { offsetInCU: 0xC646, offset: 0xC646, size: 0x8, addend: 0x0, symName: __ZNSt3__116allocator_traitsINS_9allocatorIiEEE8max_sizeB7v160006IS2_vEEmRKS2_, symObjAddr: 0x2980, symBinAddr: 0x100005B30, symSize: 0x20 }
  - { offsetInCU: 0xC674, offset: 0xC674, size: 0x8, addend: 0x0, symName: __ZNKSt3__19allocatorIiE8max_sizeB7v160006Ev, symObjAddr: 0x2A00, symBinAddr: 0x100005BB0, symSize: 0x20 }
  - { offsetInCU: 0xC6A4, offset: 0xC6A4, size: 0x8, addend: 0x0, symName: __ZNKSt3__123__move_backward_trivialclB7v160006IPiS2_Li0EEENS_4pairIPT_PT0_EES5_S5_S7_, symObjAddr: 0x2BB0, symBinAddr: 0x100005D60, symSize: 0x40 }
  - { offsetInCU: 0xC70C, offset: 0xC70C, size: 0x8, addend: 0x0, symName: __ZNSt3__14pairIPPiS2_EC1B7v160006IRS2_S5_LPv0EEEOT_OT0_, symObjAddr: 0x2CA0, symBinAddr: 0x100005E50, symSize: 0x30 }
  - { offsetInCU: 0xC76A, offset: 0xC76A, size: 0x8, addend: 0x0, symName: __ZNSt3__14pairIPPiS2_EC2B7v160006IRS2_S5_LPv0EEEOT_OT0_, symObjAddr: 0x2CD0, symBinAddr: 0x100005E80, symSize: 0x30 }
  - { offsetInCU: 0xC7D2, offset: 0xC7D2, size: 0x8, addend: 0x0, symName: __ZNKSt3__16__lessImmEclB7v160006ERKmS3_, symObjAddr: 0x2D50, symBinAddr: 0x100005F00, symSize: 0x30 }
  - { offsetInCU: 0xC814, offset: 0xC814, size: 0x8, addend: 0x0, symName: __ZNSt3__117__compressed_pairIPPiNS_9allocatorIS1_EEE6secondB7v160006Ev, symObjAddr: 0x2D80, symBinAddr: 0x100005F30, symSize: 0x20 }
  - { offsetInCU: 0xC83A, offset: 0xC83A, size: 0x8, addend: 0x0, symName: __ZNSt3__122__compressed_pair_elemINS_9allocatorIPiEELi1ELb1EE5__getB7v160006Ev, symObjAddr: 0x2DA0, symBinAddr: 0x100005F50, symSize: 0x10 }
  - { offsetInCU: 0xC860, offset: 0xC860, size: 0x8, addend: 0x0, symName: __ZNSt3__114__split_bufferIPiRNS_9allocatorIS1_EEEC2EmmS4_, symObjAddr: 0x2DB0, symBinAddr: 0x100005F60, symSize: 0xD0 }
  - { offsetInCU: 0xC8D4, offset: 0xC8D4, size: 0x8, addend: 0x0, symName: __ZNSt3__117__compressed_pairIPPiRNS_9allocatorIS1_EEEC1B7v160006IDnS5_EEOT_OT0_, symObjAddr: 0x2E80, symBinAddr: 0x100006030, symSize: 0x30 }
  - { offsetInCU: 0xC92C, offset: 0xC92C, size: 0x8, addend: 0x0, symName: __ZNSt3__117__compressed_pairIPPiRNS_9allocatorIS1_EEEC2B7v160006IDnS5_EEOT_OT0_, symObjAddr: 0x2EF0, symBinAddr: 0x1000060A0, symSize: 0x40 }
  - { offsetInCU: 0xC984, offset: 0xC984, size: 0x8, addend: 0x0, symName: __ZNSt3__122__compressed_pair_elemIRNS_9allocatorIPiEELi1ELb0EEC2B7v160006IS4_vEEOT_, symObjAddr: 0x2F30, symBinAddr: 0x1000060E0, symSize: 0x20 }
  - { offsetInCU: 0xC9C6, offset: 0xC9C6, size: 0x8, addend: 0x0, symName: __ZNSt3__19allocatorIPiE8allocateB7v160006Em, symObjAddr: 0x2F50, symBinAddr: 0x100006100, symSize: 0x50 }
  - { offsetInCU: 0xCA04, offset: 0xCA04, size: 0x8, addend: 0x0, symName: __ZNSt3__116allocator_traitsINS_9allocatorIPiEEE8max_sizeB7v160006IS3_vEEmRKS3_, symObjAddr: 0x2FA0, symBinAddr: 0x100006150, symSize: 0x20 }
  - { offsetInCU: 0xCA32, offset: 0xCA32, size: 0x8, addend: 0x0, symName: __ZNKSt3__19allocatorIPiE8max_sizeB7v160006Ev, symObjAddr: 0x2FC0, symBinAddr: 0x100006170, symSize: 0x20 }
  - { offsetInCU: 0xCA58, offset: 0xCA58, size: 0x8, addend: 0x0, symName: __ZNSt3__122__allocator_destructorINS_9allocatorIiEEEC2B7v160006ERS2_m, symObjAddr: 0x2FE0, symBinAddr: 0x100006190, symSize: 0x30 }
  - { offsetInCU: 0xCA9E, offset: 0xCA9E, size: 0x8, addend: 0x0, symName: __ZNSt3__110unique_ptrIPiNS_22__allocator_destructorINS_9allocatorIiEEEEEC2B7v160006ILb1EvEES1_NS_16__dependent_typeINS_27__unique_ptr_deleter_sfinaeIS5_EEXT_EE20__good_rval_ref_typeE, symObjAddr: 0x3010, symBinAddr: 0x1000061C0, symSize: 0x40 }
  - { offsetInCU: 0xCAEF, offset: 0xCAEF, size: 0x8, addend: 0x0, symName: __ZNSt3__117__compressed_pairIPiNS_22__allocator_destructorINS_9allocatorIiEEEEEC1B7v160006IRS1_S5_EEOT_OT0_, symObjAddr: 0x3050, symBinAddr: 0x100006200, symSize: 0x30 }
  - { offsetInCU: 0xCB47, offset: 0xCB47, size: 0x8, addend: 0x0, symName: __ZNSt3__117__compressed_pairIPiNS_22__allocator_destructorINS_9allocatorIiEEEEEC2B7v160006IRS1_S5_EEOT_OT0_, symObjAddr: 0x3080, symBinAddr: 0x100006230, symSize: 0x40 }
  - { offsetInCU: 0xCB9F, offset: 0xCB9F, size: 0x8, addend: 0x0, symName: __ZNSt3__122__compressed_pair_elemIPiLi0ELb0EEC2B7v160006IRS1_vEEOT_, symObjAddr: 0x30C0, symBinAddr: 0x100006270, symSize: 0x20 }
  - { offsetInCU: 0xCBE1, offset: 0xCBE1, size: 0x8, addend: 0x0, symName: __ZNSt3__122__compressed_pair_elemINS_22__allocator_destructorINS_9allocatorIiEEEELi1ELb0EEC2B7v160006IS4_vEEOT_, symObjAddr: 0x30E0, symBinAddr: 0x100006290, symSize: 0x30 }
  - { offsetInCU: 0xCC23, offset: 0xCC23, size: 0x8, addend: 0x0, symName: __ZNKSt3__117__compressed_pairIPiNS_22__allocator_destructorINS_9allocatorIiEEEEE5firstB7v160006Ev, symObjAddr: 0x3110, symBinAddr: 0x1000062C0, symSize: 0x20 }
  - { offsetInCU: 0xCC49, offset: 0xCC49, size: 0x8, addend: 0x0, symName: __ZNKSt3__122__compressed_pair_elemIPiLi0ELb0EE5__getB7v160006Ev, symObjAddr: 0x3130, symBinAddr: 0x1000062E0, symSize: 0x10 }
  - { offsetInCU: 0xCC6F, offset: 0xCC6F, size: 0x8, addend: 0x0, symName: __ZNSt3__117__compressed_pairIPiNS_22__allocator_destructorINS_9allocatorIiEEEEE5firstB7v160006Ev, symObjAddr: 0x3140, symBinAddr: 0x1000062F0, symSize: 0x20 }
  - { offsetInCU: 0xCC95, offset: 0xCC95, size: 0x8, addend: 0x0, symName: __ZNSt3__122__compressed_pair_elemIPiLi0ELb0EE5__getB7v160006Ev, symObjAddr: 0x3160, symBinAddr: 0x100006310, symSize: 0x10 }
  - { offsetInCU: 0xCCBB, offset: 0xCCBB, size: 0x8, addend: 0x0, symName: __ZNSt3__117__compressed_pairIPPiNS_9allocatorIS1_EEE5firstB7v160006Ev, symObjAddr: 0x3170, symBinAddr: 0x100006320, symSize: 0x20 }
  - { offsetInCU: 0xCCE1, offset: 0xCCE1, size: 0x8, addend: 0x0, symName: __ZNSt3__122__compressed_pair_elemIPPiLi0ELb0EE5__getB7v160006Ev, symObjAddr: 0x3190, symBinAddr: 0x100006340, symSize: 0x10 }
  - { offsetInCU: 0xCD07, offset: 0xCD07, size: 0x8, addend: 0x0, symName: __ZNSt3__117__compressed_pairIPPiRNS_9allocatorIS1_EEE5firstB7v160006Ev, symObjAddr: 0x31A0, symBinAddr: 0x100006350, symSize: 0x20 }
  - { offsetInCU: 0xCD2D, offset: 0xCD2D, size: 0x8, addend: 0x0, symName: __ZNSt3__110unique_ptrIPiNS_22__allocator_destructorINS_9allocatorIiEEEEED2B7v160006Ev, symObjAddr: 0x31C0, symBinAddr: 0x100006370, symSize: 0x20 }
  - { offsetInCU: 0xCD57, offset: 0xCD57, size: 0x8, addend: 0x0, symName: __ZNSt3__110unique_ptrIPiNS_22__allocator_destructorINS_9allocatorIiEEEEE5resetB7v160006ES1_, symObjAddr: 0x31E0, symBinAddr: 0x100006390, symSize: 0x70 }
  - { offsetInCU: 0xCD9B, offset: 0xCD9B, size: 0x8, addend: 0x0, symName: __ZNSt3__117__compressed_pairIPiNS_22__allocator_destructorINS_9allocatorIiEEEEE6secondB7v160006Ev, symObjAddr: 0x3250, symBinAddr: 0x100006400, symSize: 0x20 }
  - { offsetInCU: 0xCDC1, offset: 0xCDC1, size: 0x8, addend: 0x0, symName: __ZNSt3__122__allocator_destructorINS_9allocatorIiEEEclB7v160006EPi, symObjAddr: 0x3270, symBinAddr: 0x100006420, symSize: 0x30 }
  - { offsetInCU: 0xCDF5, offset: 0xCDF5, size: 0x8, addend: 0x0, symName: __ZNSt3__122__compressed_pair_elemINS_22__allocator_destructorINS_9allocatorIiEEEELi1ELb0EE5__getB7v160006Ev, symObjAddr: 0x32A0, symBinAddr: 0x100006450, symSize: 0x10 }
  - { offsetInCU: 0xCE1B, offset: 0xCE1B, size: 0x8, addend: 0x0, symName: __ZNSt3__116allocator_traitsINS_9allocatorIiEEE10deallocateB7v160006ERS2_Pim, symObjAddr: 0x32B0, symBinAddr: 0x100006460, symSize: 0x30 }
  - { offsetInCU: 0xCE5D, offset: 0xCE5D, size: 0x8, addend: 0x0, symName: __ZNSt3__19allocatorIiE10deallocateB7v160006EPim, symObjAddr: 0x32E0, symBinAddr: 0x100006490, symSize: 0x40 }
  - { offsetInCU: 0xCE9F, offset: 0xCE9F, size: 0x8, addend: 0x0, symName: __ZNSt3__114__split_bufferIPiRNS_9allocatorIS1_EEED2Ev, symObjAddr: 0x3390, symBinAddr: 0x100006540, symSize: 0x70 }
  - { offsetInCU: 0xCECB, offset: 0xCECB, size: 0x8, addend: 0x0, symName: __ZNSt3__114__split_bufferIPiRNS_9allocatorIS1_EEE5clearB7v160006Ev, symObjAddr: 0x3400, symBinAddr: 0x1000065B0, symSize: 0x20 }
  - { offsetInCU: 0xCEF1, offset: 0xCEF1, size: 0x8, addend: 0x0, symName: __ZNSt3__116allocator_traitsINS_9allocatorIPiEEE10deallocateB7v160006ERS3_PS2_m, symObjAddr: 0x3420, symBinAddr: 0x1000065D0, symSize: 0x30 }
  - { offsetInCU: 0xCF33, offset: 0xCF33, size: 0x8, addend: 0x0, symName: __ZNKSt3__114__split_bufferIPiRNS_9allocatorIS1_EEE8capacityB7v160006Ev, symObjAddr: 0x3450, symBinAddr: 0x100006600, symSize: 0x30 }
  - { offsetInCU: 0xCF59, offset: 0xCF59, size: 0x8, addend: 0x0, symName: __ZNSt3__114__split_bufferIPiRNS_9allocatorIS1_EEE17__destruct_at_endB7v160006EPS1_, symObjAddr: 0x3480, symBinAddr: 0x100006630, symSize: 0x30 }
  - { offsetInCU: 0xCF8D, offset: 0xCF8D, size: 0x8, addend: 0x0, symName: __ZNSt3__114__split_bufferIPiRNS_9allocatorIS1_EEE17__destruct_at_endB7v160006EPS1_NS_17integral_constantIbLb0EEE, symObjAddr: 0x34B0, symBinAddr: 0x100006660, symSize: 0x80 }
  - { offsetInCU: 0xCFCD, offset: 0xCFCD, size: 0x8, addend: 0x0, symName: __ZNSt3__116allocator_traitsINS_9allocatorIPiEEE7destroyB7v160006IS2_vEEvRS3_PT_, symObjAddr: 0x3530, symBinAddr: 0x1000066E0, symSize: 0x30 }
  - { offsetInCU: 0xD00A, offset: 0xD00A, size: 0x8, addend: 0x0, symName: __ZNSt3__19allocatorIPiE7destroyB7v160006EPS1_, symObjAddr: 0x3560, symBinAddr: 0x100006710, symSize: 0x10 }
  - { offsetInCU: 0xD03E, offset: 0xD03E, size: 0x8, addend: 0x0, symName: __ZNSt3__19allocatorIPiE10deallocateB7v160006EPS1_m, symObjAddr: 0x3570, symBinAddr: 0x100006720, symSize: 0x40 }
  - { offsetInCU: 0xD080, offset: 0xD080, size: 0x8, addend: 0x0, symName: __ZNKSt3__114__split_bufferIPiRNS_9allocatorIS1_EEE9__end_capB7v160006Ev, symObjAddr: 0x35B0, symBinAddr: 0x100006760, symSize: 0x20 }
  - { offsetInCU: 0xD0A6, offset: 0xD0A6, size: 0x8, addend: 0x0, symName: __ZNKSt3__117__compressed_pairIPPiRNS_9allocatorIS1_EEE5firstB7v160006Ev, symObjAddr: 0x35D0, symBinAddr: 0x100006780, symSize: 0x20 }
  - { offsetInCU: 0xD0CC, offset: 0xD0CC, size: 0x8, addend: 0x0, symName: __ZNSt3__19allocatorIiE9constructB7v160006IiJRKiEEEvPT_DpOT0_, symObjAddr: 0x35F0, symBinAddr: 0x1000067A0, symSize: 0x20 }
  - { offsetInCU: 0xD122, offset: 0xD122, size: 0x8, addend: 0x0, symName: __ZNKSt3__114__split_bufferIPiNS_9allocatorIS1_EEE5emptyB7v160006Ev, symObjAddr: 0x3610, symBinAddr: 0x1000067C0, symSize: 0x20 }
  - { offsetInCU: 0xD148, offset: 0xD148, size: 0x8, addend: 0x0, symName: __ZNSt3__116__deque_iteratorIiPiRiPS1_lLl1024EEC1B7v160006ES3_S1_, symObjAddr: 0x3630, symBinAddr: 0x1000067E0, symSize: 0x30 }
  - { offsetInCU: 0xD190, offset: 0xD190, size: 0x8, addend: 0x0, symName: __ZNSt3__116__deque_iteratorIiPiRiPS1_lLl1024EEC2B7v160006ES3_S1_, symObjAddr: 0x3660, symBinAddr: 0x100006810, symSize: 0x30 }
  - { offsetInCU: 0xD1D8, offset: 0xD1D8, size: 0x8, addend: 0x0, symName: __ZNSt3__117__compressed_pairImNS_9allocatorIiEEE5firstB7v160006Ev, symObjAddr: 0x3690, symBinAddr: 0x100006840, symSize: 0x20 }
  - { offsetInCU: 0xD1FE, offset: 0xD1FE, size: 0x8, addend: 0x0, symName: __ZNSt3__122__compressed_pair_elemImLi0ELb0EE5__getB7v160006Ev, symObjAddr: 0x36B0, symBinAddr: 0x100006860, symSize: 0x10 }
  - { offsetInCU: 0xD224, offset: 0xD224, size: 0x8, addend: 0x0, symName: __ZNKSt3__15stackIiNS_5dequeIiNS_9allocatorIiEEEEE5emptyB7v160006Ev, symObjAddr: 0x36C0, symBinAddr: 0x100006870, symSize: 0x20 }
  - { offsetInCU: 0xD24A, offset: 0xD24A, size: 0x8, addend: 0x0, symName: __ZNSt3__15stackIiNS_5dequeIiNS_9allocatorIiEEEEE3topB7v160006Ev, symObjAddr: 0x36E0, symBinAddr: 0x100006890, symSize: 0x20 }
  - { offsetInCU: 0xD270, offset: 0xD270, size: 0x8, addend: 0x0, symName: __ZNSt3__15stackIiNS_5dequeIiNS_9allocatorIiEEEEE3popB7v160006Ev, symObjAddr: 0x3700, symBinAddr: 0x1000068B0, symSize: 0x20 }
  - { offsetInCU: 0xD296, offset: 0xD296, size: 0x8, addend: 0x0, symName: __ZNKSt3__15dequeIiNS_9allocatorIiEEE5emptyB7v160006Ev, symObjAddr: 0x3720, symBinAddr: 0x1000068D0, symSize: 0x30 }
  - { offsetInCU: 0xD2BC, offset: 0xD2BC, size: 0x8, addend: 0x0, symName: __ZNSt3__15dequeIiNS_9allocatorIiEEE4backEv, symObjAddr: 0x3750, symBinAddr: 0x100006900, symSize: 0x60 }
  - { offsetInCU: 0xD2F3, offset: 0xD2F3, size: 0x8, addend: 0x0, symName: __ZNSt3__15dequeIiNS_9allocatorIiEEE8pop_backEv, symObjAddr: 0x37B0, symBinAddr: 0x100006960, symSize: 0xA0 }
  - { offsetInCU: 0xD339, offset: 0xD339, size: 0x8, addend: 0x0, symName: __ZNSt3__116allocator_traitsINS_9allocatorIiEEE7destroyB7v160006IivEEvRS2_PT_, symObjAddr: 0x3850, symBinAddr: 0x100006A00, symSize: 0x30 }
  - { offsetInCU: 0xD376, offset: 0xD376, size: 0x8, addend: 0x0, symName: __ZNSt3__15dequeIiNS_9allocatorIiEEE25__maybe_remove_back_spareB7v160006Eb, symObjAddr: 0x3890, symBinAddr: 0x100006A40, symSize: 0xA0 }
  - { offsetInCU: 0xD3AB, offset: 0xD3AB, size: 0x8, addend: 0x0, symName: __ZNSt3__19allocatorIiE7destroyB7v160006EPi, symObjAddr: 0x3930, symBinAddr: 0x100006AE0, symSize: 0x10 }
  - { offsetInCU: 0xD3DF, offset: 0xD3DF, size: 0x8, addend: 0x0, symName: __ZNKSt3__15dequeIiNS_9allocatorIiEEE19__back_spare_blocksB7v160006Ev, symObjAddr: 0x3940, symBinAddr: 0x100006AF0, symSize: 0x20 }
  - { offsetInCU: 0xD405, offset: 0xD405, size: 0x8, addend: 0x0, symName: __ZNSt3__114__split_bufferIPiNS_9allocatorIS1_EEE4backB7v160006Ev, symObjAddr: 0x3960, symBinAddr: 0x100006B10, symSize: 0x20 }
  - { offsetInCU: 0xD42B, offset: 0xD42B, size: 0x8, addend: 0x0, symName: __ZNSt3__114__split_bufferIPiNS_9allocatorIS1_EEE8pop_backB7v160006Ev, symObjAddr: 0x3980, symBinAddr: 0x100006B30, symSize: 0x30 }
  - { offsetInCU: 0xD451, offset: 0xD451, size: 0x8, addend: 0x0, symName: __ZNSt3__114__split_bufferIPiNS_9allocatorIS1_EEE17__destruct_at_endB7v160006EPS1_, symObjAddr: 0x39B0, symBinAddr: 0x100006B60, symSize: 0x30 }
  - { offsetInCU: 0xD485, offset: 0xD485, size: 0x8, addend: 0x0, symName: __ZNSt3__114__split_bufferIPiNS_9allocatorIS1_EEE17__destruct_at_endB7v160006EPS1_NS_17integral_constantIbLb0EEE, symObjAddr: 0x39E0, symBinAddr: 0x100006B90, symSize: 0x80 }
  - { offsetInCU: 0xD4C5, offset: 0xD4C5, size: 0x8, addend: 0x0, symName: __ZN7MyQueueD2Ev, symObjAddr: 0x3A60, symBinAddr: 0x100006C10, symSize: 0x30 }
  - { offsetInCU: 0xD4F1, offset: 0xD4F1, size: 0x8, addend: 0x0, symName: __ZNSt3__15stackIiNS_5dequeIiNS_9allocatorIiEEEEED1Ev, symObjAddr: 0x3A90, symBinAddr: 0x100006C40, symSize: 0x20 }
  - { offsetInCU: 0xD51D, offset: 0xD51D, size: 0x8, addend: 0x0, symName: __ZNSt3__15stackIiNS_5dequeIiNS_9allocatorIiEEEEED2Ev, symObjAddr: 0x3AB0, symBinAddr: 0x100006C60, symSize: 0x20 }
  - { offsetInCU: 0xD549, offset: 0xD549, size: 0x8, addend: 0x0, symName: __ZNSt3__15dequeIiNS_9allocatorIiEEED1B7v160006Ev, symObjAddr: 0x3AD0, symBinAddr: 0x100006C80, symSize: 0x20 }
  - { offsetInCU: 0xD573, offset: 0xD573, size: 0x8, addend: 0x0, symName: __ZNSt3__15dequeIiNS_9allocatorIiEEED2B7v160006Ev, symObjAddr: 0x3AF0, symBinAddr: 0x100006CA0, symSize: 0x80 }
  - { offsetInCU: 0xD5CA, offset: 0xD5CA, size: 0x8, addend: 0x0, symName: __ZNSt3__15dequeIiNS_9allocatorIiEEE5clearEv, symObjAddr: 0x3B70, symBinAddr: 0x100006D20, symSize: 0x160 }
  - { offsetInCU: 0xD625, offset: 0xD625, size: 0x8, addend: 0x0, symName: __ZNSt3__114__split_bufferIPiNS_9allocatorIS1_EEED1Ev, symObjAddr: 0x3CD0, symBinAddr: 0x100006E80, symSize: 0x20 }
  - { offsetInCU: 0xD651, offset: 0xD651, size: 0x8, addend: 0x0, symName: __ZNSt3__15dequeIiNS_9allocatorIiEEE5beginB7v160006Ev, symObjAddr: 0x3CF0, symBinAddr: 0x100006EA0, symSize: 0xA0 }
  - { offsetInCU: 0xD686, offset: 0xD686, size: 0x8, addend: 0x0, symName: __ZNSt3__116__deque_iteratorIiPiRiPS1_lLl1024EEppB7v160006Ev, symObjAddr: 0x3DC0, symBinAddr: 0x100006F70, symSize: 0x60 }
  - { offsetInCU: 0xD6AC, offset: 0xD6AC, size: 0x8, addend: 0x0, symName: __ZNSt3__114__split_bufferIPiNS_9allocatorIS1_EEED2Ev, symObjAddr: 0x3E50, symBinAddr: 0x100007000, symSize: 0x60 }
  - { offsetInCU: 0xD6D8, offset: 0xD6D8, size: 0x8, addend: 0x0, symName: __ZNSt3__114__split_bufferIPiNS_9allocatorIS1_EEE5clearB7v160006Ev, symObjAddr: 0x3EB0, symBinAddr: 0x100007060, symSize: 0x20 }
  - { offsetInCU: 0xD6FE, offset: 0xD6FE, size: 0x8, addend: 0x0, symName: __ZNSt3__111char_traitsIcE6lengthEPKc, symObjAddr: 0x40C0, symBinAddr: 0x100007270, symSize: 0x30 }
  - { offsetInCU: 0xD73F, offset: 0xD73F, size: 0x8, addend: 0x0, symName: __ZNKSt3__113basic_ostreamIcNS_11char_traitsIcEEE6sentrycvbB7v160006Ev, symObjAddr: 0x40F0, symBinAddr: 0x1000072A0, symSize: 0x20 }
  - { offsetInCU: 0xD765, offset: 0xD765, size: 0x8, addend: 0x0, symName: __ZNSt3__119ostreambuf_iteratorIcNS_11char_traitsIcEEEC1B7v160006ERNS_13basic_ostreamIcS2_EE, symObjAddr: 0x4330, symBinAddr: 0x1000074E0, symSize: 0x30 }
  - { offsetInCU: 0xD79D, offset: 0xD79D, size: 0x8, addend: 0x0, symName: __ZNKSt3__18ios_base5flagsB7v160006Ev, symObjAddr: 0x4360, symBinAddr: 0x100007510, symSize: 0x20 }
  - { offsetInCU: 0xD7C5, offset: 0xD7C5, size: 0x8, addend: 0x0, symName: __ZNKSt3__19basic_iosIcNS_11char_traitsIcEEE4fillB7v160006Ev, symObjAddr: 0x4380, symBinAddr: 0x100007530, symSize: 0x70 }
  - { offsetInCU: 0xD7ED, offset: 0xD7ED, size: 0x8, addend: 0x0, symName: __ZNKSt3__119ostreambuf_iteratorIcNS_11char_traitsIcEEE6failedB7v160006Ev, symObjAddr: 0x43F0, symBinAddr: 0x1000075A0, symSize: 0x20 }
  - { offsetInCU: 0xD813, offset: 0xD813, size: 0x8, addend: 0x0, symName: __ZNSt3__19basic_iosIcNS_11char_traitsIcEEE8setstateB7v160006Ej, symObjAddr: 0x4410, symBinAddr: 0x1000075C0, symSize: 0x30 }
  - { offsetInCU: 0xD848, offset: 0xD848, size: 0x8, addend: 0x0, symName: __ZNKSt3__18ios_base5widthB7v160006Ev, symObjAddr: 0x4440, symBinAddr: 0x1000075F0, symSize: 0x20 }
  - { offsetInCU: 0xD870, offset: 0xD870, size: 0x8, addend: 0x0, symName: __ZNSt3__115basic_streambufIcNS_11char_traitsIcEEE5sputnB7v160006EPKcl, symObjAddr: 0x4460, symBinAddr: 0x100007610, symSize: 0x30 }
  - { offsetInCU: 0xD8B2, offset: 0xD8B2, size: 0x8, addend: 0x0, symName: __ZNSt3__112basic_stringIcNS_11char_traitsIcEENS_9allocatorIcEEEC1B7v160006Emc, symObjAddr: 0x4490, symBinAddr: 0x100007640, symSize: 0x30 }
  - { offsetInCU: 0xD8FA, offset: 0xD8FA, size: 0x8, addend: 0x0, symName: __ZNKSt3__112basic_stringIcNS_11char_traitsIcEENS_9allocatorIcEEE4dataB7v160006Ev, symObjAddr: 0x44C0, symBinAddr: 0x100007670, symSize: 0x30 }
  - { offsetInCU: 0xD920, offset: 0xD920, size: 0x8, addend: 0x0, symName: __ZNSt3__18ios_base5widthB7v160006El, symObjAddr: 0x44F0, symBinAddr: 0x1000076A0, symSize: 0x30 }
  - { offsetInCU: 0xD966, offset: 0xD966, size: 0x8, addend: 0x0, symName: __ZNSt3__112basic_stringIcNS_11char_traitsIcEENS_9allocatorIcEEEC2B7v160006Emc, symObjAddr: 0x4520, symBinAddr: 0x1000076D0, symSize: 0x50 }
  - { offsetInCU: 0xD9AE, offset: 0xD9AE, size: 0x8, addend: 0x0, symName: __ZNSt3__117__compressed_pairINS_12basic_stringIcNS_11char_traitsIcEENS_9allocatorIcEEE5__repES5_EC1B7v160006INS_18__default_init_tagESA_EEOT_OT0_, symObjAddr: 0x4570, symBinAddr: 0x100007720, symSize: 0x30 }
  - { offsetInCU: 0xDA06, offset: 0xDA06, size: 0x8, addend: 0x0, symName: __ZNSt3__117__compressed_pairINS_12basic_stringIcNS_11char_traitsIcEENS_9allocatorIcEEE5__repES5_EC2B7v160006INS_18__default_init_tagESA_EEOT_OT0_, symObjAddr: 0x45B0, symBinAddr: 0x100007760, symSize: 0x30 }
  - { offsetInCU: 0xDA5E, offset: 0xDA5E, size: 0x8, addend: 0x0, symName: __ZNSt3__122__compressed_pair_elemINS_12basic_stringIcNS_11char_traitsIcEENS_9allocatorIcEEE5__repELi0ELb0EEC2B7v160006ENS_18__default_init_tagE, symObjAddr: 0x45E0, symBinAddr: 0x100007790, symSize: 0x10 }
  - { offsetInCU: 0xDA92, offset: 0xDA92, size: 0x8, addend: 0x0, symName: __ZNSt3__122__compressed_pair_elemINS_9allocatorIcEELi1ELb1EEC2B7v160006ENS_18__default_init_tagE, symObjAddr: 0x45F0, symBinAddr: 0x1000077A0, symSize: 0x20 }
  - { offsetInCU: 0xDAC6, offset: 0xDAC6, size: 0x8, addend: 0x0, symName: __ZNSt3__19allocatorIcEC2B7v160006Ev, symObjAddr: 0x4610, symBinAddr: 0x1000077C0, symSize: 0x20 }
  - { offsetInCU: 0xDAF0, offset: 0xDAF0, size: 0x8, addend: 0x0, symName: __ZNSt3__116__non_trivial_ifILb1ENS_9allocatorIcEEEC2B7v160006Ev, symObjAddr: 0x4630, symBinAddr: 0x1000077E0, symSize: 0x10 }
  - { offsetInCU: 0xDB1A, offset: 0xDB1A, size: 0x8, addend: 0x0, symName: __ZNKSt3__112basic_stringIcNS_11char_traitsIcEENS_9allocatorIcEEE13__get_pointerB7v160006Ev, symObjAddr: 0x4650, symBinAddr: 0x100007800, symSize: 0x50 }
  - { offsetInCU: 0xDB40, offset: 0xDB40, size: 0x8, addend: 0x0, symName: __ZNKSt3__112basic_stringIcNS_11char_traitsIcEENS_9allocatorIcEEE9__is_longB7v160006Ev, symObjAddr: 0x46A0, symBinAddr: 0x100007850, symSize: 0x30 }
  - { offsetInCU: 0xDB66, offset: 0xDB66, size: 0x8, addend: 0x0, symName: __ZNKSt3__112basic_stringIcNS_11char_traitsIcEENS_9allocatorIcEEE18__get_long_pointerB7v160006Ev, symObjAddr: 0x46D0, symBinAddr: 0x100007880, symSize: 0x20 }
  - { offsetInCU: 0xDB8C, offset: 0xDB8C, size: 0x8, addend: 0x0, symName: __ZNKSt3__112basic_stringIcNS_11char_traitsIcEENS_9allocatorIcEEE19__get_short_pointerB7v160006Ev, symObjAddr: 0x46F0, symBinAddr: 0x1000078A0, symSize: 0x30 }
  - { offsetInCU: 0xDBB2, offset: 0xDBB2, size: 0x8, addend: 0x0, symName: __ZNKSt3__117__compressed_pairINS_12basic_stringIcNS_11char_traitsIcEENS_9allocatorIcEEE5__repES5_E5firstB7v160006Ev, symObjAddr: 0x4720, symBinAddr: 0x1000078D0, symSize: 0x20 }
  - { offsetInCU: 0xDBD8, offset: 0xDBD8, size: 0x8, addend: 0x0, symName: __ZNKSt3__122__compressed_pair_elemINS_12basic_stringIcNS_11char_traitsIcEENS_9allocatorIcEEE5__repELi0ELb0EE5__getB7v160006Ev, symObjAddr: 0x4740, symBinAddr: 0x1000078F0, symSize: 0x10 }
  - { offsetInCU: 0xDBFE, offset: 0xDBFE, size: 0x8, addend: 0x0, symName: __ZNSt3__114pointer_traitsIPKcE10pointer_toB7v160006ERS1_, symObjAddr: 0x4750, symBinAddr: 0x100007900, symSize: 0x10 }
  - { offsetInCU: 0xDC21, offset: 0xDC21, size: 0x8, addend: 0x0, symName: __ZNSt3__119ostreambuf_iteratorIcNS_11char_traitsIcEEEC2B7v160006ERNS_13basic_ostreamIcS2_EE, symObjAddr: 0x4760, symBinAddr: 0x100007910, symSize: 0x50 }
  - { offsetInCU: 0xDC59, offset: 0xDC59, size: 0x8, addend: 0x0, symName: __ZNKSt3__19basic_iosIcNS_11char_traitsIcEEE5rdbufB7v160006Ev, symObjAddr: 0x47B0, symBinAddr: 0x100007960, symSize: 0x20 }
  - { offsetInCU: 0xDC81, offset: 0xDC81, size: 0x8, addend: 0x0, symName: __ZNKSt3__18ios_base5rdbufB7v160006Ev, symObjAddr: 0x47D0, symBinAddr: 0x100007980, symSize: 0x20 }
  - { offsetInCU: 0xDCA7, offset: 0xDCA7, size: 0x8, addend: 0x0, symName: __ZNSt3__111char_traitsIcE11eq_int_typeEii, symObjAddr: 0x47F0, symBinAddr: 0x1000079A0, symSize: 0x20 }
  - { offsetInCU: 0xDCD8, offset: 0xDCD8, size: 0x8, addend: 0x0, symName: __ZNSt3__111char_traitsIcE3eofEv, symObjAddr: 0x4810, symBinAddr: 0x1000079C0, symSize: 0x10 }
  - { offsetInCU: 0xDCEC, offset: 0xDCEC, size: 0x8, addend: 0x0, symName: __ZNKSt3__19basic_iosIcNS_11char_traitsIcEEE5widenB7v160006Ec, symObjAddr: 0x4820, symBinAddr: 0x1000079D0, symSize: 0x80 }
  - { offsetInCU: 0xDD5A, offset: 0xDD5A, size: 0x8, addend: 0x0, symName: __ZNKSt3__15ctypeIcE5widenB7v160006Ec, symObjAddr: 0x48D0, symBinAddr: 0x100007A80, symSize: 0x30 }
  - { offsetInCU: 0xDD8F, offset: 0xDD8F, size: 0x8, addend: 0x0, symName: __ZNSt3__18ios_base8setstateB7v160006Ej, symObjAddr: 0x4900, symBinAddr: 0x100007AB0, symSize: 0x30 }
...
